; Function Attrs: nounwind sspstrong uwtable
define dso_local void @block_copy_reset(ptr noundef %s, i64 noundef %offset, i64 noundef %bytes) local_unnamed_addr #0 {
entry:
  %lock = getelementptr inbounds nuw i8, ptr %s, i64 48
  tail call void @qemu_co_mutex_lock(ptr noundef nonnull %lock) #14
  %copy_bitmap = getelementptr inbounds nuw i8, ptr %s, i64 136
  %0 = load ptr, ptr %copy_bitmap, align 8
  tail call void @bdrv_reset_dirty_bitmap(ptr noundef %0, i64 noundef %offset, i64 noundef %bytes) #14
  %progress = getelementptr inbounds nuw i8, ptr %s, i64 144
  %1 = load ptr, ptr %progress, align 8
  %tobool.not = icmp eq ptr %1, null
  br i1 %tobool.not, label %glib_autoptr_cleanup_QemuLockable.exit, label %if.then

if.then:                                          ; preds = %entry
  %2 = load ptr, ptr %copy_bitmap, align 8
  %call6 = tail call i64 @bdrv_get_dirty_count(ptr noundef %2) #14
  %in_flight_bytes = getelementptr inbounds nuw i8, ptr %s, i64 96
  %3 = load i64, ptr %in_flight_bytes, align 8
  %add = add i64 %3, %call6
  tail call void @progress_set_remaining(ptr noundef nonnull %1, i64 noundef %add) #14
  br label %glib_autoptr_cleanup_QemuLockable.exit

glib_autoptr_cleanup_QemuLockable.exit:           ; preds = %if.then, %entry
  tail call void @qemu_co_mutex_unlock(ptr noundef nonnull %lock) #14
  ret void
}